#include <math.h>
#include <stdio.h>
#include <stdlib.h>
#include <string.h>
#include <iostream>
using namespace std;

void f(int t){
char c[100];
if(scanf("%s",c)!=EOF){f(0);

cout<<c;if(!t)cout<<' ';}
}
int main(){
f(1);

return 0;
}
